MPLINK 5.08, LINKER
Linker Map File - Created Fri Oct 27 12:34:43 2017

                                 Section Info
                  Section       Type    Address   Location Size(Bytes)
                ---------  ---------  ---------  ---------  ---------
                   .org_0       code   0x000000    program   0x000818
                   .cinit    romdata   0x00040c    program   0x000004



                              Program Memory Usage 
                               Start         End      
                           ---------   ---------      
                            0x000000    0x00040d      
            1038 out of 8454 program addresses used, program memory utilization is 12%



                              Symbols - Sorted by Name
                     Name    Address   Location    Storage File                     
                ---------  ---------  ---------  --------- ---------                
                  BD_Loop   0x000134    program     static F:\Course-project-alarm-clock-\main.asm
                      DEC   0x0000d1    program     static F:\Course-project-alarm-clock-\main.asm
                 Keyboard   0x00022c    program     static F:\Course-project-alarm-clock-\main.asm
                  LCD_one   0x00014a    program     static F:\Course-project-alarm-clock-\main.asm
                  LCD_two   0x0001c4    program     static F:\Course-project-alarm-clock-\main.asm
              NULL_BA_NAB   0x0000c5    program     static F:\Course-project-alarm-clock-\main.asm
                    START   0x000045    program     static F:\Course-project-alarm-clock-\main.asm
             _.org_0_0141   0x000141    program     static F:\Course-project-alarm-clock-\main.asm
             _.org_0_0144   0x000144    program     static F:\Course-project-alarm-clock-\main.asm
             _.org_0_0146   0x000146    program     static F:\Course-project-alarm-clock-\main.asm
         alarm_plus_blink   0x00011e    program     static F:\Course-project-alarm-clock-\main.asm
                    begin   0x000004    program     static F:\Course-project-alarm-clock-\main.asm
                  blinkON   0x0000c9    program     static F:\Course-project-alarm-clock-\main.asm
          blink_off_ALARM   0x000214    program     static F:\Course-project-alarm-clock-\main.asm
             blink_off_H1   0x000174    program     static F:\Course-project-alarm-clock-\main.asm
           blink_off_H1_A   0x0001ea    program     static F:\Course-project-alarm-clock-\main.asm
             blink_off_H2   0x000166    program     static F:\Course-project-alarm-clock-\main.asm
           blink_off_H2_A   0x0001dc    program     static F:\Course-project-alarm-clock-\main.asm
             blink_off_M1   0x000190    program     static F:\Course-project-alarm-clock-\main.asm
           blink_off_M1_A   0x000206    program     static F:\Course-project-alarm-clock-\main.asm
             blink_off_M2   0x000182    program     static F:\Course-project-alarm-clock-\main.asm
           blink_off_M2_A   0x0001f8    program     static F:\Course-project-alarm-clock-\main.asm
             blink_off_S1   0x0001ac    program     static F:\Course-project-alarm-clock-\main.asm
             blink_off_S2   0x00019e    program     static F:\Course-project-alarm-clock-\main.asm
            blink_off_day   0x0001ba    program     static F:\Course-project-alarm-clock-\main.asm
           blink_on_ALARM   0x000220    program     static F:\Course-project-alarm-clock-\main.asm
              blink_on_H1   0x000177    program     static F:\Course-project-alarm-clock-\main.asm
            blink_on_H1_A   0x0001ed    program     static F:\Course-project-alarm-clock-\main.asm
              blink_on_H2   0x000169    program     static F:\Course-project-alarm-clock-\main.asm
            blink_on_H2_A   0x0001df    program     static F:\Course-project-alarm-clock-\main.asm
              blink_on_M1   0x000193    program     static F:\Course-project-alarm-clock-\main.asm
            blink_on_M1_A   0x000209    program     static F:\Course-project-alarm-clock-\main.asm
              blink_on_M2   0x000185    program     static F:\Course-project-alarm-clock-\main.asm
            blink_on_M2_A   0x0001fb    program     static F:\Course-project-alarm-clock-\main.asm
              blink_on_S1   0x0001af    program     static F:\Course-project-alarm-clock-\main.asm
              blink_on_S2   0x0001a1    program     static F:\Course-project-alarm-clock-\main.asm
             blink_on_day   0x0001c1    program     static F:\Course-project-alarm-clock-\main.asm
              change_AHMS   0x0003fd    program     static F:\Course-project-alarm-clock-\main.asm
               change_HMS   0x000320    program     static F:\Course-project-alarm-clock-\main.asm
             change_alarm   0x00036b    program     static F:\Course-project-alarm-clock-\main.asm
               change_day   0x000333    program     static F:\Course-project-alarm-clock-\main.asm
              change_time   0x00025e    program     static F:\Course-project-alarm-clock-\main.asm
                     col1   0x000234    program     static F:\Course-project-alarm-clock-\main.asm
                     col2   0x00023f    program     static F:\Course-project-alarm-clock-\main.asm
                     col3   0x000248    program     static F:\Course-project-alarm-clock-\main.asm
          correct_A_minus   0x0003b4    program     static F:\Course-project-alarm-clock-\main.asm
           correct_A_plus   0x000377    program     static F:\Course-project-alarm-clock-\main.asm
               correct_H1   0x000291    program     static F:\Course-project-alarm-clock-\main.asm
             correct_H1_A   0x000396    program     static F:\Course-project-alarm-clock-\main.asm
         correct_H1_minus   0x0002e6    program     static F:\Course-project-alarm-clock-\main.asm
       correct_H1_minus_A   0x0003d3    program     static F:\Course-project-alarm-clock-\main.asm
               correct_H2   0x000289    program     static F:\Course-project-alarm-clock-\main.asm
             correct_H2_A   0x00038e    program     static F:\Course-project-alarm-clock-\main.asm
         correct_H2_minus   0x0002de    program     static F:\Course-project-alarm-clock-\main.asm
       correct_H2_minus_A   0x0003cb    program     static F:\Course-project-alarm-clock-\main.asm
               correct_M1   0x0002a7    program     static F:\Course-project-alarm-clock-\main.asm
             correct_M1_A   0x0003ac    program     static F:\Course-project-alarm-clock-\main.asm
         correct_M1_minus   0x0002fc    program     static F:\Course-project-alarm-clock-\main.asm
       correct_M1_minus_A   0x0003e9    program     static F:\Course-project-alarm-clock-\main.asm
               correct_M2   0x00029f    program     static F:\Course-project-alarm-clock-\main.asm
             correct_M2_A   0x0003a4    program     static F:\Course-project-alarm-clock-\main.asm
         correct_M2_minus   0x0002f4    program     static F:\Course-project-alarm-clock-\main.asm
       correct_M2_minus_A   0x0003e1    program     static F:\Course-project-alarm-clock-\main.asm
               correct_S1   0x0002b7    program     static F:\Course-project-alarm-clock-\main.asm
         correct_S1_minus   0x00030c    program     static F:\Course-project-alarm-clock-\main.asm
               correct_S2   0x0002af    program     static F:\Course-project-alarm-clock-\main.asm
         correct_S2_minus   0x000304    program     static F:\Course-project-alarm-clock-\main.asm
          correct_T_minus   0x0002bf    program     static F:\Course-project-alarm-clock-\main.asm
           correct_T_plus   0x00026a    program     static F:\Course-project-alarm-clock-\main.asm
           day_plus_blink   0x000114    program     static F:\Course-project-alarm-clock-\main.asm
                    delay   0x000130    program     static F:\Course-project-alarm-clock-\main.asm
            delay_one_sec   0x00013a    program     static F:\Course-project-alarm-clock-\main.asm
                end_ALARM   0x0000ce    program     static F:\Course-project-alarm-clock-\main.asm
                end_clock   0x00009e    program     static F:\Course-project-alarm-clock-\main.asm
                 end_keyb   0x000253    program     static F:\Course-project-alarm-clock-\main.asm
                    exday   0x00010a    program     static F:\Course-project-alarm-clock-\main.asm
                   friday   0x0000f6    program     static F:\Course-project-alarm-clock-\main.asm
            if_S_ONE_ZERO   0x0000a4    program     static F:\Course-project-alarm-clock-\main.asm
            if_S_TWO_ZERO   0x0000a9    program     static F:\Course-project-alarm-clock-\main.asm
               if_T_AT_H1   0x0000b3    program     static F:\Course-project-alarm-clock-\main.asm
               if_T_AT_H2   0x0000ae    program     static F:\Course-project-alarm-clock-\main.asm
               if_T_AT_M1   0x0000bd    program     static F:\Course-project-alarm-clock-\main.asm
               if_T_AT_M2   0x0000b8    program     static F:\Course-project-alarm-clock-\main.asm
                   inc_BA   0x0000c2    program     static F:\Course-project-alarm-clock-\main.asm
             minus_day_ch   0x00034d    program     static F:\Course-project-alarm-clock-\main.asm
                   monday   0x0000da    program     static F:\Course-project-alarm-clock-\main.asm
                  paintH1   0x00016c    program     static F:\Course-project-alarm-clock-\main.asm
                paintH1_A   0x0001e2    program     static F:\Course-project-alarm-clock-\main.asm
                  paintH2   0x00015e    program     static F:\Course-project-alarm-clock-\main.asm
                paintH2_A   0x0001d4    program     static F:\Course-project-alarm-clock-\main.asm
                  paintM1   0x000188    program     static F:\Course-project-alarm-clock-\main.asm
                paintM1_A   0x0001fe    program     static F:\Course-project-alarm-clock-\main.asm
                  paintM2   0x00017a    program     static F:\Course-project-alarm-clock-\main.asm
                paintM2_A   0x0001f0    program     static F:\Course-project-alarm-clock-\main.asm
                  paintS1   0x0001a4    program     static F:\Course-project-alarm-clock-\main.asm
                  paintS2   0x000196    program     static F:\Course-project-alarm-clock-\main.asm
              paint_ALARM   0x00020c    program     static F:\Course-project-alarm-clock-\main.asm
              plus_day_ch   0x00033f    program     static F:\Course-project-alarm-clock-\main.asm
                 printDay   0x0001b2    program     static F:\Course-project-alarm-clock-\main.asm
             return_ALARM   0x00022b    program     static F:\Course-project-alarm-clock-\main.asm
              return_A_H1   0x0001ef    program     static F:\Course-project-alarm-clock-\main.asm
              return_A_H2   0x0001e1    program     static F:\Course-project-alarm-clock-\main.asm
              return_A_M1   0x00020b    program     static F:\Course-project-alarm-clock-\main.asm
              return_A_M2   0x0001fd    program     static F:\Course-project-alarm-clock-\main.asm
            return_COR_H1   0x00029c    program     static F:\Course-project-alarm-clock-\main.asm
          return_COR_H1_A   0x0003a1    program     static F:\Course-project-alarm-clock-\main.asm
    return_COR_H1_A_minus   0x0003de    program     static F:\Course-project-alarm-clock-\main.asm
        return_COR_H1_MIN   0x0002f1    program     static F:\Course-project-alarm-clock-\main.asm
            return_COR_H2   0x000290    program     static F:\Course-project-alarm-clock-\main.asm
          return_COR_H2_A   0x000395    program     static F:\Course-project-alarm-clock-\main.asm
    return_COR_H2_A_minus   0x0003d2    program     static F:\Course-project-alarm-clock-\main.asm
        return_COR_H2_MIN   0x0002e5    program     static F:\Course-project-alarm-clock-\main.asm
            return_COR_M1   0x0002ae    program     static F:\Course-project-alarm-clock-\main.asm
          return_COR_M1_A   0x0003b3    program     static F:\Course-project-alarm-clock-\main.asm
    return_COR_M1_A_minus   0x0003f0    program     static F:\Course-project-alarm-clock-\main.asm
        return_COR_M1_MIN   0x000303    program     static F:\Course-project-alarm-clock-\main.asm
            return_COR_M2   0x0002a6    program     static F:\Course-project-alarm-clock-\main.asm
          return_COR_M2_A   0x0003ab    program     static F:\Course-project-alarm-clock-\main.asm
    return_COR_M2_A_minus   0x0003e8    program     static F:\Course-project-alarm-clock-\main.asm
        return_COR_M2_MIN   0x0002fb    program     static F:\Course-project-alarm-clock-\main.asm
            return_COR_S1   0x0002be    program     static F:\Course-project-alarm-clock-\main.asm
        return_COR_S1_MIN   0x000313    program     static F:\Course-project-alarm-clock-\main.asm
            return_COR_S2   0x0002b6    program     static F:\Course-project-alarm-clock-\main.asm
        return_COR_S2_MIN   0x00030b    program     static F:\Course-project-alarm-clock-\main.asm
               return_DAY   0x0001c3    program     static F:\Course-project-alarm-clock-\main.asm
                return_H1   0x000179    program     static F:\Course-project-alarm-clock-\main.asm
                return_H2   0x00016b    program     static F:\Course-project-alarm-clock-\main.asm
                return_M1   0x000195    program     static F:\Course-project-alarm-clock-\main.asm
                return_M2   0x000187    program     static F:\Course-project-alarm-clock-\main.asm
                return_S1   0x0001b1    program     static F:\Course-project-alarm-clock-\main.asm
                return_S2   0x0001a3    program     static F:\Course-project-alarm-clock-\main.asm
                 saturday   0x0000fd    program     static F:\Course-project-alarm-clock-\main.asm
                   save_A   0x0003f1    program     static F:\Course-project-alarm-clock-\main.asm
                   save_T   0x000314    program     static F:\Course-project-alarm-clock-\main.asm
              save_day_ch   0x00035b    program     static F:\Course-project-alarm-clock-\main.asm
             save_end_day   0x000364    program     static F:\Course-project-alarm-clock-\main.asm
                   sunday   0x000104    program     static F:\Course-project-alarm-clock-\main.asm
                       t1   0x000297    program     static F:\Course-project-alarm-clock-\main.asm
                       t2   0x0002f0    program     static F:\Course-project-alarm-clock-\main.asm
                      ta1   0x00039c    program     static F:\Course-project-alarm-clock-\main.asm
                      ta2   0x0003dd    program     static F:\Course-project-alarm-clock-\main.asm
                ten_clock   0x000097    program     static F:\Course-project-alarm-clock-\main.asm
                 three_H1   0x00029d    program     static F:\Course-project-alarm-clock-\main.asm
               three_H1_A   0x0003a2    program     static F:\Course-project-alarm-clock-\main.asm
           three_H1_minus   0x0002f2    program     static F:\Course-project-alarm-clock-\main.asm
         three_H1_minus_A   0x0003df    program     static F:\Course-project-alarm-clock-\main.asm
                 thursday   0x0000ef    program     static F:\Course-project-alarm-clock-\main.asm
          time_plus_blink   0x00010b    program     static F:\Course-project-alarm-clock-\main.asm
                  tuesday   0x0000e1    program     static F:\Course-project-alarm-clock-\main.asm
                wednesday   0x0000e8    program     static F:\Course-project-alarm-clock-\main.asm
                    write   0x000128    program     static F:\Course-project-alarm-clock-\main.asm



                              Symbols - Sorted by Address
                     Name    Address   Location    Storage File                     
                ---------  ---------  ---------  --------- ---------                
                    begin   0x000004    program     static F:\Course-project-alarm-clock-\main.asm
                    START   0x000045    program     static F:\Course-project-alarm-clock-\main.asm
                ten_clock   0x000097    program     static F:\Course-project-alarm-clock-\main.asm
                end_clock   0x00009e    program     static F:\Course-project-alarm-clock-\main.asm
            if_S_ONE_ZERO   0x0000a4    program     static F:\Course-project-alarm-clock-\main.asm
            if_S_TWO_ZERO   0x0000a9    program     static F:\Course-project-alarm-clock-\main.asm
               if_T_AT_H2   0x0000ae    program     static F:\Course-project-alarm-clock-\main.asm
               if_T_AT_H1   0x0000b3    program     static F:\Course-project-alarm-clock-\main.asm
               if_T_AT_M2   0x0000b8    program     static F:\Course-project-alarm-clock-\main.asm
               if_T_AT_M1   0x0000bd    program     static F:\Course-project-alarm-clock-\main.asm
                   inc_BA   0x0000c2    program     static F:\Course-project-alarm-clock-\main.asm
              NULL_BA_NAB   0x0000c5    program     static F:\Course-project-alarm-clock-\main.asm
                  blinkON   0x0000c9    program     static F:\Course-project-alarm-clock-\main.asm
                end_ALARM   0x0000ce    program     static F:\Course-project-alarm-clock-\main.asm
                      DEC   0x0000d1    program     static F:\Course-project-alarm-clock-\main.asm
                   monday   0x0000da    program     static F:\Course-project-alarm-clock-\main.asm
                  tuesday   0x0000e1    program     static F:\Course-project-alarm-clock-\main.asm
                wednesday   0x0000e8    program     static F:\Course-project-alarm-clock-\main.asm
                 thursday   0x0000ef    program     static F:\Course-project-alarm-clock-\main.asm
                   friday   0x0000f6    program     static F:\Course-project-alarm-clock-\main.asm
                 saturday   0x0000fd    program     static F:\Course-project-alarm-clock-\main.asm
                   sunday   0x000104    program     static F:\Course-project-alarm-clock-\main.asm
                    exday   0x00010a    program     static F:\Course-project-alarm-clock-\main.asm
          time_plus_blink   0x00010b    program     static F:\Course-project-alarm-clock-\main.asm
           day_plus_blink   0x000114    program     static F:\Course-project-alarm-clock-\main.asm
         alarm_plus_blink   0x00011e    program     static F:\Course-project-alarm-clock-\main.asm
                    write   0x000128    program     static F:\Course-project-alarm-clock-\main.asm
                    delay   0x000130    program     static F:\Course-project-alarm-clock-\main.asm
                  BD_Loop   0x000134    program     static F:\Course-project-alarm-clock-\main.asm
            delay_one_sec   0x00013a    program     static F:\Course-project-alarm-clock-\main.asm
             _.org_0_0141   0x000141    program     static F:\Course-project-alarm-clock-\main.asm
             _.org_0_0144   0x000144    program     static F:\Course-project-alarm-clock-\main.asm
             _.org_0_0146   0x000146    program     static F:\Course-project-alarm-clock-\main.asm
                  LCD_one   0x00014a    program     static F:\Course-project-alarm-clock-\main.asm
                  paintH2   0x00015e    program     static F:\Course-project-alarm-clock-\main.asm
             blink_off_H2   0x000166    program     static F:\Course-project-alarm-clock-\main.asm
              blink_on_H2   0x000169    program     static F:\Course-project-alarm-clock-\main.asm
                return_H2   0x00016b    program     static F:\Course-project-alarm-clock-\main.asm
                  paintH1   0x00016c    program     static F:\Course-project-alarm-clock-\main.asm
             blink_off_H1   0x000174    program     static F:\Course-project-alarm-clock-\main.asm
              blink_on_H1   0x000177    program     static F:\Course-project-alarm-clock-\main.asm
                return_H1   0x000179    program     static F:\Course-project-alarm-clock-\main.asm
                  paintM2   0x00017a    program     static F:\Course-project-alarm-clock-\main.asm
             blink_off_M2   0x000182    program     static F:\Course-project-alarm-clock-\main.asm
              blink_on_M2   0x000185    program     static F:\Course-project-alarm-clock-\main.asm
                return_M2   0x000187    program     static F:\Course-project-alarm-clock-\main.asm
                  paintM1   0x000188    program     static F:\Course-project-alarm-clock-\main.asm
             blink_off_M1   0x000190    program     static F:\Course-project-alarm-clock-\main.asm
              blink_on_M1   0x000193    program     static F:\Course-project-alarm-clock-\main.asm
                return_M1   0x000195    program     static F:\Course-project-alarm-clock-\main.asm
                  paintS2   0x000196    program     static F:\Course-project-alarm-clock-\main.asm
             blink_off_S2   0x00019e    program     static F:\Course-project-alarm-clock-\main.asm
              blink_on_S2   0x0001a1    program     static F:\Course-project-alarm-clock-\main.asm
                return_S2   0x0001a3    program     static F:\Course-project-alarm-clock-\main.asm
                  paintS1   0x0001a4    program     static F:\Course-project-alarm-clock-\main.asm
             blink_off_S1   0x0001ac    program     static F:\Course-project-alarm-clock-\main.asm
              blink_on_S1   0x0001af    program     static F:\Course-project-alarm-clock-\main.asm
                return_S1   0x0001b1    program     static F:\Course-project-alarm-clock-\main.asm
                 printDay   0x0001b2    program     static F:\Course-project-alarm-clock-\main.asm
            blink_off_day   0x0001ba    program     static F:\Course-project-alarm-clock-\main.asm
             blink_on_day   0x0001c1    program     static F:\Course-project-alarm-clock-\main.asm
               return_DAY   0x0001c3    program     static F:\Course-project-alarm-clock-\main.asm
                  LCD_two   0x0001c4    program     static F:\Course-project-alarm-clock-\main.asm
                paintH2_A   0x0001d4    program     static F:\Course-project-alarm-clock-\main.asm
           blink_off_H2_A   0x0001dc    program     static F:\Course-project-alarm-clock-\main.asm
            blink_on_H2_A   0x0001df    program     static F:\Course-project-alarm-clock-\main.asm
              return_A_H2   0x0001e1    program     static F:\Course-project-alarm-clock-\main.asm
                paintH1_A   0x0001e2    program     static F:\Course-project-alarm-clock-\main.asm
           blink_off_H1_A   0x0001ea    program     static F:\Course-project-alarm-clock-\main.asm
            blink_on_H1_A   0x0001ed    program     static F:\Course-project-alarm-clock-\main.asm
              return_A_H1   0x0001ef    program     static F:\Course-project-alarm-clock-\main.asm
                paintM2_A   0x0001f0    program     static F:\Course-project-alarm-clock-\main.asm
           blink_off_M2_A   0x0001f8    program     static F:\Course-project-alarm-clock-\main.asm
            blink_on_M2_A   0x0001fb    program     static F:\Course-project-alarm-clock-\main.asm
              return_A_M2   0x0001fd    program     static F:\Course-project-alarm-clock-\main.asm
                paintM1_A   0x0001fe    program     static F:\Course-project-alarm-clock-\main.asm
           blink_off_M1_A   0x000206    program     static F:\Course-project-alarm-clock-\main.asm
            blink_on_M1_A   0x000209    program     static F:\Course-project-alarm-clock-\main.asm
              return_A_M1   0x00020b    program     static F:\Course-project-alarm-clock-\main.asm
              paint_ALARM   0x00020c    program     static F:\Course-project-alarm-clock-\main.asm
          blink_off_ALARM   0x000214    program     static F:\Course-project-alarm-clock-\main.asm
           blink_on_ALARM   0x000220    program     static F:\Course-project-alarm-clock-\main.asm
             return_ALARM   0x00022b    program     static F:\Course-project-alarm-clock-\main.asm
                 Keyboard   0x00022c    program     static F:\Course-project-alarm-clock-\main.asm
                     col1   0x000234    program     static F:\Course-project-alarm-clock-\main.asm
                     col2   0x00023f    program     static F:\Course-project-alarm-clock-\main.asm
                     col3   0x000248    program     static F:\Course-project-alarm-clock-\main.asm
                 end_keyb   0x000253    program     static F:\Course-project-alarm-clock-\main.asm
              change_time   0x00025e    program     static F:\Course-project-alarm-clock-\main.asm
           correct_T_plus   0x00026a    program     static F:\Course-project-alarm-clock-\main.asm
               correct_H2   0x000289    program     static F:\Course-project-alarm-clock-\main.asm
            return_COR_H2   0x000290    program     static F:\Course-project-alarm-clock-\main.asm
               correct_H1   0x000291    program     static F:\Course-project-alarm-clock-\main.asm
                       t1   0x000297    program     static F:\Course-project-alarm-clock-\main.asm
            return_COR_H1   0x00029c    program     static F:\Course-project-alarm-clock-\main.asm
                 three_H1   0x00029d    program     static F:\Course-project-alarm-clock-\main.asm
               correct_M2   0x00029f    program     static F:\Course-project-alarm-clock-\main.asm
            return_COR_M2   0x0002a6    program     static F:\Course-project-alarm-clock-\main.asm
               correct_M1   0x0002a7    program     static F:\Course-project-alarm-clock-\main.asm
            return_COR_M1   0x0002ae    program     static F:\Course-project-alarm-clock-\main.asm
               correct_S2   0x0002af    program     static F:\Course-project-alarm-clock-\main.asm
            return_COR_S2   0x0002b6    program     static F:\Course-project-alarm-clock-\main.asm
               correct_S1   0x0002b7    program     static F:\Course-project-alarm-clock-\main.asm
            return_COR_S1   0x0002be    program     static F:\Course-project-alarm-clock-\main.asm
          correct_T_minus   0x0002bf    program     static F:\Course-project-alarm-clock-\main.asm
         correct_H2_minus   0x0002de    program     static F:\Course-project-alarm-clock-\main.asm
        return_COR_H2_MIN   0x0002e5    program     static F:\Course-project-alarm-clock-\main.asm
         correct_H1_minus   0x0002e6    program     static F:\Course-project-alarm-clock-\main.asm
                       t2   0x0002f0    program     static F:\Course-project-alarm-clock-\main.asm
        return_COR_H1_MIN   0x0002f1    program     static F:\Course-project-alarm-clock-\main.asm
           three_H1_minus   0x0002f2    program     static F:\Course-project-alarm-clock-\main.asm
         correct_M2_minus   0x0002f4    program     static F:\Course-project-alarm-clock-\main.asm
        return_COR_M2_MIN   0x0002fb    program     static F:\Course-project-alarm-clock-\main.asm
         correct_M1_minus   0x0002fc    program     static F:\Course-project-alarm-clock-\main.asm
        return_COR_M1_MIN   0x000303    program     static F:\Course-project-alarm-clock-\main.asm
         correct_S2_minus   0x000304    program     static F:\Course-project-alarm-clock-\main.asm
        return_COR_S2_MIN   0x00030b    program     static F:\Course-project-alarm-clock-\main.asm
         correct_S1_minus   0x00030c    program     static F:\Course-project-alarm-clock-\main.asm
        return_COR_S1_MIN   0x000313    program     static F:\Course-project-alarm-clock-\main.asm
                   save_T   0x000314    program     static F:\Course-project-alarm-clock-\main.asm
               change_HMS   0x000320    program     static F:\Course-project-alarm-clock-\main.asm
               change_day   0x000333    program     static F:\Course-project-alarm-clock-\main.asm
              plus_day_ch   0x00033f    program     static F:\Course-project-alarm-clock-\main.asm
             minus_day_ch   0x00034d    program     static F:\Course-project-alarm-clock-\main.asm
              save_day_ch   0x00035b    program     static F:\Course-project-alarm-clock-\main.asm
             save_end_day   0x000364    program     static F:\Course-project-alarm-clock-\main.asm
             change_alarm   0x00036b    program     static F:\Course-project-alarm-clock-\main.asm
           correct_A_plus   0x000377    program     static F:\Course-project-alarm-clock-\main.asm
             correct_H2_A   0x00038e    program     static F:\Course-project-alarm-clock-\main.asm
          return_COR_H2_A   0x000395    program     static F:\Course-project-alarm-clock-\main.asm
             correct_H1_A   0x000396    program     static F:\Course-project-alarm-clock-\main.asm
                      ta1   0x00039c    program     static F:\Course-project-alarm-clock-\main.asm
          return_COR_H1_A   0x0003a1    program     static F:\Course-project-alarm-clock-\main.asm
               three_H1_A   0x0003a2    program     static F:\Course-project-alarm-clock-\main.asm
             correct_M2_A   0x0003a4    program     static F:\Course-project-alarm-clock-\main.asm
          return_COR_M2_A   0x0003ab    program     static F:\Course-project-alarm-clock-\main.asm
             correct_M1_A   0x0003ac    program     static F:\Course-project-alarm-clock-\main.asm
          return_COR_M1_A   0x0003b3    program     static F:\Course-project-alarm-clock-\main.asm
          correct_A_minus   0x0003b4    program     static F:\Course-project-alarm-clock-\main.asm
       correct_H2_minus_A   0x0003cb    program     static F:\Course-project-alarm-clock-\main.asm
    return_COR_H2_A_minus   0x0003d2    program     static F:\Course-project-alarm-clock-\main.asm
       correct_H1_minus_A   0x0003d3    program     static F:\Course-project-alarm-clock-\main.asm
                      ta2   0x0003dd    program     static F:\Course-project-alarm-clock-\main.asm
    return_COR_H1_A_minus   0x0003de    program     static F:\Course-project-alarm-clock-\main.asm
         three_H1_minus_A   0x0003df    program     static F:\Course-project-alarm-clock-\main.asm
       correct_M2_minus_A   0x0003e1    program     static F:\Course-project-alarm-clock-\main.asm
    return_COR_M2_A_minus   0x0003e8    program     static F:\Course-project-alarm-clock-\main.asm
       correct_M1_minus_A   0x0003e9    program     static F:\Course-project-alarm-clock-\main.asm
    return_COR_M1_A_minus   0x0003f0    program     static F:\Course-project-alarm-clock-\main.asm
                   save_A   0x0003f1    program     static F:\Course-project-alarm-clock-\main.asm
              change_AHMS   0x0003fd    program     static F:\Course-project-alarm-clock-\main.asm


